target datalayout = "e-m:e-p270:32:32-p271:32:32-p272:64:64-i64:64-i128:128-f80:128-n8:16:32:64-S128"
target triple = "x86_64-pc-linux-gnu"

%struct.ImVec2 = type { float, float }
%struct.ImVec4 = type { float, float, float, float }
%struct.ImVector = type { i32, i32, ptr }
%struct.ImDrawList = type { %struct.ImVector.0, %struct.ImVector.1, %struct.ImVector.2, i32, i32, ptr, ptr, ptr, %struct.ImVector, %struct.ImDrawCmdHeader, %struct.ImDrawListSplitter, %struct.ImVector.4, %struct.ImVector.5, float, ptr }
%struct.ImVector.0 = type { i32, i32, ptr }
%struct.ImVector.1 = type { i32, i32, ptr }
%struct.ImVector.2 = type { i32, i32, ptr }
%struct.ImDrawCmdHeader = type <{ %struct.ImVec4, ptr, i32, [4 x i8] }>
%struct.ImDrawListSplitter = type { i32, i32, %struct.ImVector.3 }
%struct.ImVector.3 = type { i32, i32, ptr }
%struct.ImVector.4 = type { i32, i32, ptr }
%struct.ImVector.5 = type { i32, i32, ptr }

; Function Attrs: inlinehint mustprogress nounwind uwtable
define linkonce_odr dso_local noundef i32 @_ZNK8ImVectorI6ImVec2E14_grow_capacityEi(ptr noundef nonnull align 8 dereferenceable(16) %0, i32 noundef %1) #7 comdat align 2 {
  %3 = alloca ptr, align 8
  %4 = alloca i32, align 4
  %5 = alloca i32, align 4
  store ptr %0, ptr %3, align 8, !tbaa !36
  store i32 %1, ptr %4, align 4, !tbaa !21
  %6 = load ptr, ptr %3, align 8
  call void @llvm.lifetime.start.p0(i64 4, ptr %5) #17
  %7 = getelementptr inbounds nuw %struct.ImVector, ptr %6, i32 0, i32 1
  %8 = load i32, ptr %7, align 4, !tbaa !38
  %9 = icmp ne i32 %8, 0
  br i1 %9, label %10, label %17

10:                                               ; preds = %2
  %11 = getelementptr inbounds nuw %struct.ImVector, ptr %6, i32 0, i32 1
  %12 = load i32, ptr %11, align 4, !tbaa !38
  %13 = getelementptr inbounds nuw %struct.ImVector, ptr %6, i32 0, i32 1
  %14 = load i32, ptr %13, align 4, !tbaa !38
  %15 = sdiv i32 %14, 2
  %16 = add nsw i32 %12, %15
  br label %18

17:                                               ; preds = %2
  br label %18

18:                                               ; preds = %17, %10
  %19 = phi i32 [ %16, %10 ], [ 8, %17 ]
  store i32 %19, ptr %5, align 4, !tbaa !21
  %20 = load i32, ptr %5, align 4, !tbaa !21
  %21 = load i32, ptr %4, align 4, !tbaa !21
  %22 = icmp sgt i32 %20, %21
  br i1 %22, label %23, label %25

23:                                               ; preds = %18
  %24 = load i32, ptr %5, align 4, !tbaa !21
  br label %27

25:                                               ; preds = %18
  %26 = load i32, ptr %4, align 4, !tbaa !21
  br label %27

27:                                               ; preds = %25, %23
  %28 = phi i32 [ %24, %23 ], [ %26, %25 ]
  call void @llvm.lifetime.end.p0(i64 4, ptr %5) #17
  ret i32 %28
}

; Function Attrs: mustprogress nounwind uwtable
define linkonce_odr dso_local void @_ZN6ImVec2C2Eff(ptr noundef nonnull align 4 dereferenceable(8) %0, float noundef %1, float noundef %2) unnamed_addr #3 comdat align 2 {
  %4 = alloca ptr, align 8
  %5 = alloca float, align 4
  %6 = alloca float, align 4
  store ptr %0, ptr %4, align 8, !tbaa !33
  store float %1, ptr %5, align 4, !tbaa !12
  store float %2, ptr %6, align 4, !tbaa !12
  %7 = load ptr, ptr %4, align 8
  %8 = getelementptr inbounds nuw %struct.ImVec2, ptr %7, i32 0, i32 0
  %9 = load float, ptr %5, align 4, !tbaa !12
  store float %9, ptr %8, align 4, !tbaa !34
  %10 = getelementptr inbounds nuw %struct.ImVec2, ptr %7, i32 0, i32 1
  %11 = load float, ptr %6, align 4, !tbaa !12
  store float %11, ptr %10, align 4, !tbaa !35
  ret void
}

; Function Attrs: inlinehint mustprogress uwtable
define linkonce_odr dso_local void @_ZN8ImVectorI6ImVec2E7reserveEi(ptr noundef nonnull align 8 dereferenceable(16) %0, i32 noundef %1) #5 comdat align 2 {
  %3 = alloca ptr, align 8
  %4 = alloca i32, align 4
  %5 = alloca ptr, align 8
  store ptr %0, ptr %3, align 8, !tbaa !36
  store i32 %1, ptr %4, align 4, !tbaa !21
  %6 = load ptr, ptr %3, align 8
  %7 = load i32, ptr %4, align 4, !tbaa !21
  %8 = getelementptr inbounds nuw %struct.ImVector, ptr %6, i32 0, i32 1
  %9 = load i32, ptr %8, align 4, !tbaa !38
  %10 = icmp sle i32 %7, %9
  br i1 %10, label %11, label %12

11:                                               ; preds = %2
  br label %35

12:                                               ; preds = %2
  call void @llvm.lifetime.start.p0(i64 8, ptr %5) #17
  %13 = load i32, ptr %4, align 4, !tbaa !21
  %14 = sext i32 %13 to i64
  %15 = mul i64 %14, 8
  %16 = call noundef ptr @_ZN5ImGui8MemAllocEm(i64 noundef %15)
  store ptr %16, ptr %5, align 8, !tbaa !33
  %17 = getelementptr inbounds nuw %struct.ImVector, ptr %6, i32 0, i32 2
  %18 = load ptr, ptr %17, align 8, !tbaa !40
  %19 = icmp ne ptr %18, null
  br i1 %19, label %20, label %30

20:                                               ; preds = %12
  %21 = load ptr, ptr %5, align 8, !tbaa !33
  %22 = getelementptr inbounds nuw %struct.ImVector, ptr %6, i32 0, i32 2
  %23 = load ptr, ptr %22, align 8, !tbaa !40
  %24 = getelementptr inbounds nuw %struct.ImVector, ptr %6, i32 0, i32 0
  %25 = load i32, ptr %24, align 8, !tbaa !39
  %26 = sext i32 %25 to i64
  %27 = mul i64 %26, 8
  call void @llvm.memcpy.p0.p0.i64(ptr align 4 %21, ptr align 4 %23, i64 %27, i1 false)
  %28 = getelementptr inbounds nuw %struct.ImVector, ptr %6, i32 0, i32 2
  %29 = load ptr, ptr %28, align 8, !tbaa !40
  call void @_ZN5ImGui7MemFreeEPv(ptr noundef %29)
  br label %30

30:                                               ; preds = %20, %12
  %31 = load ptr, ptr %5, align 8, !tbaa !33
  %32 = getelementptr inbounds nuw %struct.ImVector, ptr %6, i32 0, i32 2
  store ptr %31, ptr %32, align 8, !tbaa !40
  %33 = load i32, ptr %4, align 4, !tbaa !21
  %34 = getelementptr inbounds nuw %struct.ImVector, ptr %6, i32 0, i32 1
  store i32 %33, ptr %34, align 4, !tbaa !38
  call void @llvm.lifetime.end.p0(i64 8, ptr %5) #17
  br label %35

35:                                               ; preds = %30, %11
  ret void
}

; Function Attrs: inlinehint mustprogress uwtable
define linkonce_odr dso_local void @_ZN8ImVectorI6ImVec2E9push_backERKS0_(ptr noundef nonnull align 8 dereferenceable(16) %0, ptr noundef nonnull align 4 dereferenceable(8) %1) #5 comdat align 2 {
  %3 = alloca ptr, align 8
  %4 = alloca ptr, align 8
  store ptr %0, ptr %3, align 8, !tbaa !36
  store ptr %1, ptr %4, align 8, !tbaa !33
  %5 = load ptr, ptr %3, align 8
  %6 = getelementptr inbounds nuw %struct.ImVector, ptr %5, i32 0, i32 0
  %7 = load i32, ptr %6, align 8, !tbaa !39
  %8 = getelementptr inbounds nuw %struct.ImVector, ptr %5, i32 0, i32 1
  %9 = load i32, ptr %8, align 4, !tbaa !38
  %10 = icmp eq i32 %7, %9
  br i1 %10, label %11, label %16

11:                                               ; preds = %2
  %12 = getelementptr inbounds nuw %struct.ImVector, ptr %5, i32 0, i32 0
  %13 = load i32, ptr %12, align 8, !tbaa !39
  %14 = add nsw i32 %13, 1
  %15 = call noundef i32 @_ZNK8ImVectorI6ImVec2E14_grow_capacityEi(ptr noundef nonnull align 8 dereferenceable(16) %5, i32 noundef %14)
  call void @_ZN8ImVectorI6ImVec2E7reserveEi(ptr noundef nonnull align 8 dereferenceable(16) %5, i32 noundef %15)
  br label %16

16:                                               ; preds = %11, %2
  %17 = getelementptr inbounds nuw %struct.ImVector, ptr %5, i32 0, i32 2
  %18 = load ptr, ptr %17, align 8, !tbaa !40
  %19 = getelementptr inbounds nuw %struct.ImVector, ptr %5, i32 0, i32 0
  %20 = load i32, ptr %19, align 8, !tbaa !39
  %21 = sext i32 %20 to i64
  %22 = getelementptr inbounds %struct.ImVec2, ptr %18, i64 %21
  %23 = load ptr, ptr %4, align 8, !tbaa !33
  call void @llvm.memcpy.p0.p0.i64(ptr align 4 %22, ptr align 4 %23, i64 8, i1 false)
  %24 = getelementptr inbounds nuw %struct.ImVector, ptr %5, i32 0, i32 0
  %25 = load i32, ptr %24, align 8, !tbaa !39
  %26 = add nsw i32 %25, 1
  store i32 %26, ptr %24, align 8, !tbaa !39
  ret void
}

; Function Attrs: mustprogress uwtable
define dso_local void @_ZN10ImDrawList11_PathArcToNERK6ImVec2fffi(ptr noundef nonnull align 8 dereferenceable(200) %0, ptr noundef nonnull align 4 dereferenceable(8) %1, float noundef %2, float noundef %3, float noundef %4, i32 noundef %5) #6 align 2 {
  %7 = alloca ptr, align 8
  %8 = alloca ptr, align 8
  %9 = alloca float, align 4
  %10 = alloca float, align 4
  %11 = alloca float, align 4
  %12 = alloca i32, align 4
  %13 = alloca i32, align 4
  %14 = alloca float, align 4
  %15 = alloca %struct.ImVec2, align 4
  store ptr %0, ptr %7, align 8, !tbaa !43
  store ptr %1, ptr %8, align 8, !tbaa !33
  store float %2, ptr %9, align 4, !tbaa !12
  store float %3, ptr %10, align 4, !tbaa !12
  store float %4, ptr %11, align 4, !tbaa !12
  store i32 %5, ptr %12, align 4, !tbaa !21
  %16 = load ptr, ptr %7, align 8
  %17 = load float, ptr %9, align 4, !tbaa !12
  %18 = fcmp olt float %17, 5.000000e-01
  br i1 %18, label %19, label %22

19:                                               ; preds = %6
  %20 = getelementptr inbounds nuw %struct.ImDrawList, ptr %16, i32 0, i32 8
  %21 = load ptr, ptr %8, align 8, !tbaa !33
  call void @_ZN8ImVectorI6ImVec2E9push_backERKS0_(ptr noundef nonnull align 8 dereferenceable(16) %20, ptr noundef nonnull align 4 dereferenceable(8) %21)
  br label %67

22:                                               ; preds = %6
  %23 = getelementptr inbounds nuw %struct.ImDrawList, ptr %16, i32 0, i32 8
  %24 = getelementptr inbounds nuw %struct.ImDrawList, ptr %16, i32 0, i32 8
  %25 = getelementptr inbounds nuw %struct.ImVector, ptr %24, i32 0, i32 0
  %26 = load i32, ptr %25, align 8, !tbaa !160
  %27 = load i32, ptr %12, align 4, !tbaa !21
  %28 = add nsw i32 %27, 1
  %29 = add nsw i32 %26, %28
  call void @_ZN8ImVectorI6ImVec2E7reserveEi(ptr noundef nonnull align 8 dereferenceable(16) %23, i32 noundef %29)
  call void @llvm.lifetime.start.p0(i64 4, ptr %13) #17
  store i32 0, ptr %13, align 4, !tbaa !21
  br label %30

30:                                               ; preds = %64, %22
  %31 = load i32, ptr %13, align 4, !tbaa !21
  %32 = load i32, ptr %12, align 4, !tbaa !21
  %33 = icmp sle i32 %31, %32
  br i1 %33, label %35, label %34

34:                                               ; preds = %30
  call void @llvm.lifetime.end.p0(i64 4, ptr %13) #17
  br label %67

35:                                               ; preds = %30
  call void @llvm.lifetime.start.p0(i64 4, ptr %14) #17
  %36 = load float, ptr %10, align 4, !tbaa !12
  %37 = load i32, ptr %13, align 4, !tbaa !21
  %38 = sitofp i32 %37 to float
  %39 = load i32, ptr %12, align 4, !tbaa !21
  %40 = sitofp i32 %39 to float
  %41 = fdiv float %38, %40
  %42 = load float, ptr %11, align 4, !tbaa !12
  %43 = load float, ptr %10, align 4, !tbaa !12
  %44 = fsub float %42, %43
  %45 = fmul float %41, %44
  %46 = fadd float %36, %45
  store float %46, ptr %14, align 4, !tbaa !12
  %47 = getelementptr inbounds nuw %struct.ImDrawList, ptr %16, i32 0, i32 8
  call void @llvm.lifetime.start.p0(i64 8, ptr %15) #17
  %48 = load ptr, ptr %8, align 8, !tbaa !33
  %49 = getelementptr inbounds nuw %struct.ImVec2, ptr %48, i32 0, i32 0
  %50 = load float, ptr %49, align 4, !tbaa !34
  %51 = load float, ptr %14, align 4, !tbaa !12
  %52 = call float @cosf(float noundef %51) #17, !tbaa !21
  %53 = load float, ptr %9, align 4, !tbaa !12
  %54 = fmul float %52, %53
  %55 = fadd float %50, %54
  %56 = load ptr, ptr %8, align 8, !tbaa !33
  %57 = getelementptr inbounds nuw %struct.ImVec2, ptr %56, i32 0, i32 1
  %58 = load float, ptr %57, align 4, !tbaa !35
  %59 = load float, ptr %14, align 4, !tbaa !12
  %60 = call float @sinf(float noundef %59) #17, !tbaa !21
  %61 = load float, ptr %9, align 4, !tbaa !12
  %62 = fmul float %60, %61
  %63 = fadd float %58, %62
  call void @_ZN6ImVec2C2Eff(ptr noundef nonnull align 4 dereferenceable(8) %15, float noundef %55, float noundef %63)
  call void @_ZN8ImVectorI6ImVec2E9push_backERKS0_(ptr noundef nonnull align 8 dereferenceable(16) %47, ptr noundef nonnull align 4 dereferenceable(8) %15)
  call void @llvm.lifetime.end.p0(i64 8, ptr %15) #17
  call void @llvm.lifetime.end.p0(i64 4, ptr %14) #17
  br label %64

64:                                               ; preds = %35
  %65 = load i32, ptr %13, align 4, !tbaa !21
  %66 = add nsw i32 %65, 1
  store i32 %66, ptr %13, align 4, !tbaa !21
  br label %30, !llvm.loop !164

67:                                               ; preds = %19, %34
  ret void
}