; Function Attrs: mustprogress uwtable
define dso_local void @_ZN10ImDrawList11_PathArcToNERK6ImVec2fffi(ptr noundef nonnull align 8 captures(none) dereferenceable(200) %0, ptr noundef nonnull readonly align 4 captures(none) dereferenceable(8) %1, float noundef %2, float noundef %3, float noundef %4, i32 noundef %5) local_unnamed_addr #9 align 2 {
  %7 = fcmp olt float %2, 5.000000e-01
  %8 = getelementptr inbounds nuw i8, ptr %0, i64 80
  %9 = load i32, ptr %8, align 8, !tbaa !62
  br i1 %7, label %10, label %39

10:                                               ; preds = %6
  %11 = getelementptr inbounds nuw i8, ptr %0, i64 84
  %12 = load i32, ptr %11, align 4, !tbaa !60
  %13 = icmp eq i32 %9, %12
  br i1 %13, label %14, label %._ZN8ImVectorI6ImVec2E7reserveEi.exit_crit_edge.i

._ZN8ImVectorI6ImVec2E7reserveEi.exit_crit_edge.i: ; preds = %10
  %.phi.trans.insert.i = getelementptr inbounds nuw i8, ptr %0, i64 88
  %.pre.i = load ptr, ptr %.phi.trans.insert.i, align 8, !tbaa !61
  br label %_ZN8ImVectorI6ImVec2E9push_backERKS0_.exit

14:                                               ; preds = %10
  %15 = add nsw i32 %9, 1
  %.not.i.i = icmp eq i32 %9, 0
  br i1 %.not.i.i, label %_ZNK8ImVectorI6ImVec2E14_grow_capacityEi.exit.i, label %16

16:                                               ; preds = %14
  %17 = sdiv i32 %9, 2
  %18 = add nsw i32 %17, %9
  br label %_ZNK8ImVectorI6ImVec2E14_grow_capacityEi.exit.i

_ZNK8ImVectorI6ImVec2E14_grow_capacityEi.exit.i:  ; preds = %16, %14
  %19 = phi i32 [ %18, %16 ], [ 8, %14 ]
  %20 = tail call noundef i32 @llvm.smax.i32(i32 %19, i32 %15)
  %21 = sext i32 %20 to i64
  %22 = shl nsw i64 %21, 3
  %23 = tail call noundef ptr @_ZN5ImGui8MemAllocEm(i64 noundef %22)
  %24 = getelementptr inbounds nuw i8, ptr %0, i64 88
  %25 = load ptr, ptr %24, align 8, !tbaa !61
  %.not6.i.i = icmp eq ptr %25, null
  br i1 %.not6.i.i, label %31, label %26

26:                                               ; preds = %_ZNK8ImVectorI6ImVec2E14_grow_capacityEi.exit.i
  %27 = load i32, ptr %8, align 8, !tbaa !62
  %28 = sext i32 %27 to i64
  %29 = shl nsw i64 %28, 3
  tail call void @llvm.memcpy.p0.p0.i64(ptr align 4 %23, ptr nonnull align 4 %25, i64 %29, i1 false)
  %30 = load ptr, ptr %24, align 8, !tbaa !61
  tail call void @_ZN5ImGui7MemFreeEPv(ptr noundef %30)
  br label %31

31:                                               ; preds = %26, %_ZNK8ImVectorI6ImVec2E14_grow_capacityEi.exit.i
  store ptr %23, ptr %24, align 8, !tbaa !61
  store i32 %20, ptr %11, align 4, !tbaa !60
  %.pre3.i = load i32, ptr %8, align 8, !tbaa !62
  br label %_ZN8ImVectorI6ImVec2E9push_backERKS0_.exit

_ZN8ImVectorI6ImVec2E9push_backERKS0_.exit:       ; preds = %._ZN8ImVectorI6ImVec2E7reserveEi.exit_crit_edge.i, %31
  %32 = phi i32 [ %9, %._ZN8ImVectorI6ImVec2E7reserveEi.exit_crit_edge.i ], [ %.pre3.i, %31 ]
  %33 = phi ptr [ %.pre.i, %._ZN8ImVectorI6ImVec2E7reserveEi.exit_crit_edge.i ], [ %23, %31 ]
  %34 = sext i32 %32 to i64
  %35 = getelementptr inbounds %struct.ImVec2, ptr %33, i64 %34
  %36 = load i64, ptr %1, align 4
  store i64 %36, ptr %35, align 4
  %37 = load i32, ptr %8, align 8, !tbaa !62
  %38 = add nsw i32 %37, 1
  store i32 %38, ptr %8, align 8, !tbaa !62
  br label %.loopexit

39:                                               ; preds = %6
  %40 = add i32 %5, 1
  %41 = add nsw i32 %40, %9
  %42 = getelementptr inbounds nuw i8, ptr %0, i64 84
  %43 = load i32, ptr %42, align 4, !tbaa !60
  %.not.i = icmp sgt i32 %41, %43
  br i1 %.not.i, label %44, label %_ZN8ImVectorI6ImVec2E7reserveEi.exit

44:                                               ; preds = %39
  %45 = sext i32 %41 to i64
  %46 = shl nsw i64 %45, 3
  %47 = tail call noundef ptr @_ZN5ImGui8MemAllocEm(i64 noundef %46)
  %48 = getelementptr inbounds nuw i8, ptr %0, i64 88
  %49 = load ptr, ptr %48, align 8, !tbaa !61
  %.not6.i = icmp eq ptr %49, null
  br i1 %.not6.i, label %55, label %50

50:                                               ; preds = %44
  %51 = load i32, ptr %8, align 8, !tbaa !62
  %52 = sext i32 %51 to i64
  %53 = shl nsw i64 %52, 3
  tail call void @llvm.memcpy.p0.p0.i64(ptr align 4 %47, ptr nonnull align 4 %49, i64 %53, i1 false)
  %54 = load ptr, ptr %48, align 8, !tbaa !61
  tail call void @_ZN5ImGui7MemFreeEPv(ptr noundef %54)
  br label %55

55:                                               ; preds = %50, %44
  store ptr %47, ptr %48, align 8, !tbaa !61
  store i32 %41, ptr %42, align 4, !tbaa !60
  br label %_ZN8ImVectorI6ImVec2E7reserveEi.exit

_ZN8ImVectorI6ImVec2E7reserveEi.exit:             ; preds = %39, %55
  %.not28 = icmp slt i32 %5, 0
  br i1 %.not28, label %.loopexit, label %.lr.ph

.lr.ph:                                           ; preds = %_ZN8ImVectorI6ImVec2E7reserveEi.exit
  %56 = uitofp nneg i32 %5 to float
  %57 = fsub float %4, %3
  %58 = getelementptr inbounds nuw i8, ptr %1, i64 4
  %.phi.trans.insert.i20 = getelementptr inbounds nuw i8, ptr %0, i64 88
  br label %59

59:                                               ; preds = %.lr.ph, %_ZN8ImVectorI6ImVec2E9push_backERKS0_.exit26
  %.029 = phi i32 [ 0, %.lr.ph ], [ %98, %_ZN8ImVectorI6ImVec2E9push_backERKS0_.exit26 ]
  %60 = uitofp nneg i32 %.029 to float
  %61 = fdiv float %60, %56
  %62 = fmul float %57, %61
  %63 = fadd float %3, %62
  %64 = load float, ptr %1, align 4, !tbaa !93
  %65 = tail call float @cosf(float noundef %63) #42, !tbaa !19
  %66 = fmul float %2, %65
  %67 = fadd float %64, %66
  %68 = load float, ptr %58, align 4, !tbaa !94
  %69 = tail call float @sinf(float noundef %63) #42, !tbaa !19
  %70 = fmul float %2, %69
  %71 = fadd float %68, %70
  %72 = load i32, ptr %8, align 8, !tbaa !62
  %73 = load i32, ptr %42, align 4, !tbaa !60
  %74 = icmp eq i32 %72, %73
  br i1 %74, label %75, label %._ZN8ImVectorI6ImVec2E7reserveEi.exit_crit_edge.i19

._ZN8ImVectorI6ImVec2E7reserveEi.exit_crit_edge.i19: ; preds = %59
  %.pre.i21 = load ptr, ptr %.phi.trans.insert.i20, align 8, !tbaa !61
  br label %_ZN8ImVectorI6ImVec2E9push_backERKS0_.exit26

75:                                               ; preds = %59
  %76 = add nsw i32 %72, 1
  %.not.i.i22 = icmp eq i32 %72, 0
  br i1 %.not.i.i22, label %_ZNK8ImVectorI6ImVec2E14_grow_capacityEi.exit.i23, label %77

77:                                               ; preds = %75
  %78 = sdiv i32 %72, 2
  %79 = add nsw i32 %78, %72
  br label %_ZNK8ImVectorI6ImVec2E14_grow_capacityEi.exit.i23

_ZNK8ImVectorI6ImVec2E14_grow_capacityEi.exit.i23: ; preds = %77, %75
  %80 = phi i32 [ %79, %77 ], [ 8, %75 ]
  %81 = tail call noundef i32 @llvm.smax.i32(i32 %80, i32 %76)
  %82 = sext i32 %81 to i64
  %83 = shl nsw i64 %82, 3
  %84 = tail call noundef ptr @_ZN5ImGui8MemAllocEm(i64 noundef %83)
  %85 = load ptr, ptr %.phi.trans.insert.i20, align 8, !tbaa !61
  %.not6.i.i24 = icmp eq ptr %85, null
  br i1 %.not6.i.i24, label %91, label %86

86:                                               ; preds = %_ZNK8ImVectorI6ImVec2E14_grow_capacityEi.exit.i23
  %87 = load i32, ptr %8, align 8, !tbaa !62
  %88 = sext i32 %87 to i64
  %89 = shl nsw i64 %88, 3
  tail call void @llvm.memcpy.p0.p0.i64(ptr align 4 %84, ptr nonnull align 4 %85, i64 %89, i1 false)
  %90 = load ptr, ptr %.phi.trans.insert.i20, align 8, !tbaa !61
  tail call void @_ZN5ImGui7MemFreeEPv(ptr noundef %90)
  br label %91

91:                                               ; preds = %86, %_ZNK8ImVectorI6ImVec2E14_grow_capacityEi.exit.i23
  store ptr %84, ptr %.phi.trans.insert.i20, align 8, !tbaa !61
  store i32 %81, ptr %42, align 4, !tbaa !60
  %.pre3.i25 = load i32, ptr %8, align 8, !tbaa !62
  br label %_ZN8ImVectorI6ImVec2E9push_backERKS0_.exit26

_ZN8ImVectorI6ImVec2E9push_backERKS0_.exit26:     ; preds = %._ZN8ImVectorI6ImVec2E7reserveEi.exit_crit_edge.i19, %91
  %92 = phi i32 [ %72, %._ZN8ImVectorI6ImVec2E7reserveEi.exit_crit_edge.i19 ], [ %.pre3.i25, %91 ]
  %93 = phi ptr [ %.pre.i21, %._ZN8ImVectorI6ImVec2E7reserveEi.exit_crit_edge.i19 ], [ %84, %91 ]
  %94 = sext i32 %92 to i64
  %95 = getelementptr inbounds %struct.ImVec2, ptr %93, i64 %94
  store float %67, ptr %95, align 4
  %.sroa_idx27 = getelementptr inbounds nuw i8, ptr %95, i64 4
  store float %71, ptr %.sroa_idx27, align 4
  %96 = load i32, ptr %8, align 8, !tbaa !62
  %97 = add nsw i32 %96, 1
  store i32 %97, ptr %8, align 8, !tbaa !62
  %98 = add nuw i32 %.029, 1
  %exitcond.not = icmp eq i32 %.029, %5
  br i1 %exitcond.not, label %.loopexit, label %59, !llvm.loop !128

.loopexit:                                        ; preds = %_ZN8ImVectorI6ImVec2E9push_backERKS0_.exit26, %_ZN8ImVectorI6ImVec2E7reserveEi.exit, %_ZN8ImVectorI6ImVec2E9push_backERKS0_.exit
  ret void
}